Certificate:
    Data:
        Version: 3 (0x2)
        Serial Number: 1 (0x1)
    Signature Algorithm: sha1WithRSAEncryption
        Issuer: C=AU, ST=FUCK GFW, L=FUCK GFW, O=FUCK GFW, CN=FUCK GFW
        Validity
            Not Before: Jun 13 03:42:37 2014 GMT
            Not After : Jun 12 03:42:37 2018 GMT
        Subject: C=AU, ST=Some-State, O=Internet Widgits Pty Ltd, CN=*.google.com
        Subject Public Key Info:
            Public Key Algorithm: rsaEncryption
                Public-Key: (1024 bit)
                Modulus:
                    00:ca:4d:42:9f:99:34:86:61:05:7c:fc:2f:1f:f0:
                    91:b5:00:fb:79:09:66:ef:9e:3a:b8:da:9e:0a:88:
                    1a:af:b8:42:e0:fc:6b:c2:35:d4:29:b8:ee:8f:d9:
                    08:63:d0:a0:c9:72:3c:ff:50:9f:7e:c3:d6:8b:03:
                    30:0a:43:60:a9:21:d5:32:fb:29:2d:3e:d7:da:aa:
                    86:b8:32:af:df:5c:87:0b:0e:13:94:1a:89:33:44:
                    bf:cb:91:90:84:09:68:30:c5:10:dc:79:b9:f4:5a:
                    5e:ec:46:d6:03:1b:2a:1f:75:e8:09:70:00:79:95:
                    2c:25:4f:09:ed:cd:54:83:ff
                Exponent: 65537 (0x10001)
        X509v3 extensions:
            X509v3 Basic Constraints: 
                CA:FALSE
            Netscape Comment: 
                OpenSSL Generated Certificate
            X509v3 Subject Key Identifier: 
                76:B6:49:1A:96:5B:C5:54:EA:8B:5A:A5:53:4F:9C:E3:87:37:40:E1
            X509v3 Authority Key Identifier: 
                keyid:66:B9:F5:07:B4:FF:41:F2:95:D9:A7:3A:B4:35:C1:24:9A:EA:B7:28

    Signature Algorithm: sha1WithRSAEncryption
         0e:c6:9c:2a:f3:33:e3:68:0b:02:88:e5:bd:d9:b9:53:8c:b3:
         51:7e:15:51:cb:8d:de:50:f3:aa:cf:65:f7:f3:da:0f:67:ed:
         a8:fa:a3:c8:72:0e:80:32:a6:b9:e3:55:2d:35:2d:66:76:1b:
         50:2d:3b:e5:29:92:73:80:5f:fd:73:e9:b1:36:0c:d0:d1:95:
         12:c3:cb:0f:ad:56:76:27:58:83:e5:25:b6:99:5f:56:10:79:
         a7:fa:97:4e:67:c3:2c:9b:c4:52:56:0e:af:4a:f9:48:90:56:
         6d:9b:e1:c6:c8:9d:d9:4a:b3:64:6d:63:c1:57:04:9f:0b:e4:
         b2:38:fa:c7:4a:78:44:57:b8:8a:79:f7:a7:03:8b:44:01:1d:
         41:95:89:43:92:6b:e5:78:c1:b4:cf:a7:4d:9c:10:02:bd:6f:
         94:a3:f6:e0:6e:12:3d:bb:54:49:3d:99:fc:a1:9d:04:ab:b7:
         d4:58:db:1b:90:9a:13:2b:ed:d9:42:36:b0:a5:f5:6c:af:58:
         89:ea:27:e7:dc:5c:8c:c4:d2:53:41:d8:a0:03:d8:36:8b:81:
         c7:0a:24:1d:2a:e8:87:82:31:cf:49:4c:3d:0a:c7:f6:88:6b:
         30:ef:2d:59:68:55:9f:7d:aa:45:99:1b:5d:20:ab:65:d2:cd:
         85:34:7c:7c
-----BEGIN CERTIFICATE-----
MIIDJzCCAg+gAwIBAgIBATANBgkqhkiG9w0BAQUFADBZMQswCQYDVQQGEwJBVTER
MA8GA1UECAwIRlVDSyBHRlcxETAPBgNVBAcMCEZVQ0sgR0ZXMREwDwYDVQQKDAhG
VUNLIEdGVzERMA8GA1UEAwwIRlVDSyBHRlcwHhcNMTQwNjEzMDM0MjM3WhcNMTgw
NjEyMDM0MjM3WjBcMQswCQYDVQQGEwJBVTETMBEGA1UECAwKU29tZS1TdGF0ZTEh
MB8GA1UECgwYSW50ZXJuZXQgV2lkZ2l0cyBQdHkgTHRkMRUwEwYDVQQDDAwqLmdv
b2dsZS5jb20wgZ8wDQYJKoZIhvcNAQEBBQADgY0AMIGJAoGBAMpNQp+ZNIZhBXz8
Lx/wkbUA+3kJZu+eOrjangqIGq+4QuD8a8I11Cm47o/ZCGPQoMlyPP9Qn37D1osD
MApDYKkh1TL7KS0+19qqhrgyr99chwsOE5QaiTNEv8uRkIQJaDDFENx5ufRaXuxG
1gMbKh916AlwAHmVLCVPCe3NVIP/AgMBAAGjezB5MAkGA1UdEwQCMAAwLAYJYIZI
AYb4QgENBB8WHU9wZW5TU0wgR2VuZXJhdGVkIENlcnRpZmljYXRlMB0GA1UdDgQW
BBR2tkkallvFVOqLWqVTT5zjhzdA4TAfBgNVHSMEGDAWgBRmufUHtP9B8pXZpzq0
NcEkmuq3KDANBgkqhkiG9w0BAQUFAAOCAQEADsacKvMz42gLAojlvdm5U4yzUX4V
UcuN3lDzqs9l9/PaD2ftqPqjyHIOgDKmueNVLTUtZnYbUC075SmSc4Bf/XPpsTYM
0NGVEsPLD61WdidYg+UltplfVhB5p/qXTmfDLJvEUlYOr0r5SJBWbZvhxsid2Uqz
ZG1jwVcEnwvksjj6x0p4RFe4inn3pwOLRAEdQZWJQ5Jr5XjBtM+nTZwQAr1vlKP2
4G4SPbtUST2Z/KGdBKu31FjbG5CaEyvt2UI2sKX1bK9Yieon59xcjMTSU0HYoAPY
NouBxwokHSroh4Ixz0lMPQrH9ohrMO8tWWhVn32qRZkbXSCrZdLNhTR8fA==
-----END CERTIFICATE-----
