Certificate:
    Data:
        Version: 3 (0x2)
        Serial Number: 2 (0x2)
    Signature Algorithm: sha1WithRSAEncryption
        Issuer: C=AU, ST=FUCK GFW, L=FUCK GFW, O=FUCK GFW, CN=FUCK GFW
        Validity
            Not Before: Jun 13 03:43:18 2014 GMT
            Not After : Jun 12 03:43:18 2018 GMT
        Subject: C=AU, ST=Some-State, O=Internet Widgits Pty Ltd, CN=*.google.com.hk
        Subject Public Key Info:
            Public Key Algorithm: rsaEncryption
                Public-Key: (1024 bit)
                Modulus:
                    00:ca:4d:42:9f:99:34:86:61:05:7c:fc:2f:1f:f0:
                    91:b5:00:fb:79:09:66:ef:9e:3a:b8:da:9e:0a:88:
                    1a:af:b8:42:e0:fc:6b:c2:35:d4:29:b8:ee:8f:d9:
                    08:63:d0:a0:c9:72:3c:ff:50:9f:7e:c3:d6:8b:03:
                    30:0a:43:60:a9:21:d5:32:fb:29:2d:3e:d7:da:aa:
                    86:b8:32:af:df:5c:87:0b:0e:13:94:1a:89:33:44:
                    bf:cb:91:90:84:09:68:30:c5:10:dc:79:b9:f4:5a:
                    5e:ec:46:d6:03:1b:2a:1f:75:e8:09:70:00:79:95:
                    2c:25:4f:09:ed:cd:54:83:ff
                Exponent: 65537 (0x10001)
        X509v3 extensions:
            X509v3 Basic Constraints: 
                CA:FALSE
            Netscape Comment: 
                OpenSSL Generated Certificate
            X509v3 Subject Key Identifier: 
                76:B6:49:1A:96:5B:C5:54:EA:8B:5A:A5:53:4F:9C:E3:87:37:40:E1
            X509v3 Authority Key Identifier: 
                keyid:66:B9:F5:07:B4:FF:41:F2:95:D9:A7:3A:B4:35:C1:24:9A:EA:B7:28

    Signature Algorithm: sha1WithRSAEncryption
         94:cc:97:e6:2f:4a:8b:5d:18:c0:24:02:a4:94:2a:98:ee:b8:
         e3:fe:bb:74:48:30:02:4d:f5:26:a9:6d:eb:6c:10:07:8c:43:
         06:d3:46:d0:74:80:c0:14:79:d6:06:23:88:fc:37:dd:46:b8:
         06:79:ae:1f:ad:04:bf:ed:c5:b4:ed:22:1a:f1:b4:99:b2:36:
         5c:c7:88:59:ab:3f:36:4f:bd:48:45:0a:e7:51:52:67:bd:9b:
         aa:6f:91:09:9a:2f:d5:7a:61:36:fd:c7:a8:1f:e3:3d:88:49:
         df:9a:ee:3b:2b:a8:27:55:f6:30:a9:ad:09:ee:b1:03:4f:50:
         c6:6f:33:97:1c:cc:70:d6:a6:ae:a2:a8:5a:13:6c:b0:9d:22:
         6d:a0:90:42:a1:ad:10:e6:b6:3e:12:be:02:9f:ae:2b:b4:15:
         0b:d7:d3:31:c8:3d:71:dd:63:31:b4:2e:56:94:b7:05:ca:99:
         7f:52:0d:b6:45:92:bf:08:37:7d:1d:d1:28:dc:e8:3c:2c:74:
         c6:e4:66:39:b4:ec:af:94:71:29:45:d1:95:3a:06:db:d8:5c:
         7d:c9:de:9a:1a:e9:7f:c1:96:22:a1:67:10:e6:91:52:ed:46:
         73:2b:df:98:58:9e:1a:aa:a5:fd:ab:60:22:b2:26:c6:2c:b1:
         72:50:36:d7
-----BEGIN CERTIFICATE-----
MIIDKjCCAhKgAwIBAgIBAjANBgkqhkiG9w0BAQUFADBZMQswCQYDVQQGEwJBVTER
MA8GA1UECAwIRlVDSyBHRlcxETAPBgNVBAcMCEZVQ0sgR0ZXMREwDwYDVQQKDAhG
VUNLIEdGVzERMA8GA1UEAwwIRlVDSyBHRlcwHhcNMTQwNjEzMDM0MzE4WhcNMTgw
NjEyMDM0MzE4WjBfMQswCQYDVQQGEwJBVTETMBEGA1UECAwKU29tZS1TdGF0ZTEh
MB8GA1UECgwYSW50ZXJuZXQgV2lkZ2l0cyBQdHkgTHRkMRgwFgYDVQQDDA8qLmdv
b2dsZS5jb20uaGswgZ8wDQYJKoZIhvcNAQEBBQADgY0AMIGJAoGBAMpNQp+ZNIZh
BXz8Lx/wkbUA+3kJZu+eOrjangqIGq+4QuD8a8I11Cm47o/ZCGPQoMlyPP9Qn37D
1osDMApDYKkh1TL7KS0+19qqhrgyr99chwsOE5QaiTNEv8uRkIQJaDDFENx5ufRa
XuxG1gMbKh916AlwAHmVLCVPCe3NVIP/AgMBAAGjezB5MAkGA1UdEwQCMAAwLAYJ
YIZIAYb4QgENBB8WHU9wZW5TU0wgR2VuZXJhdGVkIENlcnRpZmljYXRlMB0GA1Ud
DgQWBBR2tkkallvFVOqLWqVTT5zjhzdA4TAfBgNVHSMEGDAWgBRmufUHtP9B8pXZ
pzq0NcEkmuq3KDANBgkqhkiG9w0BAQUFAAOCAQEAlMyX5i9Ki10YwCQCpJQqmO64
4/67dEgwAk31Jqlt62wQB4xDBtNG0HSAwBR51gYjiPw33Ua4BnmuH60Ev+3FtO0i
GvG0mbI2XMeIWas/Nk+9SEUK51FSZ72bqm+RCZov1XphNv3HqB/jPYhJ35ruOyuo
J1X2MKmtCe6xA09Qxm8zlxzMcNamrqKoWhNssJ0ibaCQQqGtEOa2PhK+Ap+uK7QV
C9fTMcg9cd1jMbQuVpS3BcqZf1INtkWSvwg3fR3RKNzoPCx0xuRmObTsr5RxKUXR
lToG29hcfcnemhrpf8GWIqFnEOaRUu1GcyvfmFieGqql/atgIrImxiyxclA21w==
-----END CERTIFICATE-----
